target datalayout = "e-m:e-p270:32:32-p271:32:32-p272:64:64-i64:64-i128:128-f80:128-n8:16:32:64-S128"
target triple = "x86_64-pc-linux-gnu"

%struct.mbedtls_ecp_group = type { i32, %struct.mbedtls_mpi, %struct.mbedtls_mpi, %struct.mbedtls_mpi, %struct.mbedtls_ecp_point, %struct.mbedtls_mpi, i64, i64, i32, ptr, ptr, ptr, ptr, ptr, i64 }
%struct.mbedtls_ecp_point = type { %struct.mbedtls_mpi, %struct.mbedtls_mpi, %struct.mbedtls_mpi }
%struct.mbedtls_mpi = type { ptr, i16, i16 }

; Function Attrs: nounwind uwtable
define internal i32 @mbedtls_ecp_gen_privkey_sw(ptr noundef %0, ptr noundef %1, ptr noundef %2, ptr noundef %3) #0 {
  %5 = alloca i32, align 4
  %6 = alloca ptr, align 8
  %7 = alloca ptr, align 8
  %8 = alloca ptr, align 8
  %9 = alloca ptr, align 8
  %10 = alloca i32, align 4
  %11 = alloca i32, align 4
  store ptr %0, ptr %6, align 8, !tbaa !50
  store ptr %1, ptr %7, align 8, !tbaa !50
  store ptr %2, ptr %8, align 8, !tbaa !55
  store ptr %3, ptr %9, align 8, !tbaa !55
  call void @llvm.lifetime.start.p0(i64 4, ptr %10) #11
  %12 = load ptr, ptr %7, align 8, !tbaa !50
  %13 = load ptr, ptr %6, align 8, !tbaa !50
  %14 = load ptr, ptr %8, align 8, !tbaa !55
  %15 = load ptr, ptr %9, align 8, !tbaa !55
  %16 = call i32 @mbedtls_mpi_random(ptr noundef %12, i64 noundef 1, ptr noundef %13, ptr noundef %14, ptr noundef %15)
  store i32 %16, ptr %10, align 4, !tbaa !3
  %17 = load i32, ptr %10, align 4, !tbaa !3
  switch i32 %17, label %19 [
    i32 -14, label %18
  ]

18:                                               ; preds = %4
  store i32 -19712, ptr %5, align 4
  store i32 1, ptr %11, align 4
  br label %21

19:                                               ; preds = %4
  %20 = load i32, ptr %10, align 4, !tbaa !3
  store i32 %20, ptr %5, align 4
  store i32 1, ptr %11, align 4
  br label %21

21:                                               ; preds = %19, %18
  call void @llvm.lifetime.end.p0(i64 4, ptr %10) #11
  %22 = load i32, ptr %5, align 4
  ret i32 %22
}

; Function Attrs: nounwind uwtable
define internal i32 @mbedtls_ecp_gen_privkey_mx(i64 noundef %0, ptr noundef %1, ptr noundef %2, ptr noundef %3) #0 {
  %5 = alloca i64, align 8
  %6 = alloca ptr, align 8
  %7 = alloca ptr, align 8
  %8 = alloca ptr, align 8
  %9 = alloca i32, align 4
  %10 = alloca i64, align 8
  store i64 %0, ptr %5, align 8, !tbaa !7
  store ptr %1, ptr %6, align 8, !tbaa !50
  store ptr %2, ptr %7, align 8, !tbaa !55
  store ptr %3, ptr %8, align 8, !tbaa !55
  call void @llvm.lifetime.start.p0(i64 4, ptr %9) #11
  store i32 -20352, ptr %9, align 4, !tbaa !3
  call void @llvm.lifetime.start.p0(i64 8, ptr %10) #11
  %11 = load i64, ptr %5, align 8, !tbaa !7
  %12 = udiv i64 %11, 8
  %13 = add i64 %12, 1
  store i64 %13, ptr %10, align 8, !tbaa !7
  br label %14

14:                                               ; preds = %4
  %15 = load ptr, ptr %6, align 8, !tbaa !50
  %16 = load i64, ptr %10, align 8, !tbaa !7
  %17 = load ptr, ptr %7, align 8, !tbaa !55
  %18 = load ptr, ptr %8, align 8, !tbaa !55
  %19 = call i32 @mbedtls_mpi_fill_random(ptr noundef %15, i64 noundef %16, ptr noundef %17, ptr noundef %18)
  store i32 %19, ptr %9, align 4, !tbaa !3
  %20 = icmp ne i32 %19, 0
  br i1 %20, label %21, label %22

21:                                               ; preds = %14
  br label %75

22:                                               ; preds = %14
  br label %23

23:                                               ; preds = %22
  br label %24

24:                                               ; preds = %23
  br label %25

25:                                               ; preds = %24
  %26 = load ptr, ptr %6, align 8, !tbaa !50
  %27 = load i64, ptr %10, align 8, !tbaa !7
  %28 = mul i64 8, %27
  %29 = load i64, ptr %5, align 8, !tbaa !7
  %30 = sub i64 %28, %29
  %31 = sub i64 %30, 1
  %32 = call i32 @mbedtls_mpi_shift_r(ptr noundef %26, i64 noundef %31)
  store i32 %32, ptr %9, align 4, !tbaa !3
  %33 = icmp ne i32 %32, 0
  br i1 %33, label %34, label %35

34:                                               ; preds = %25
  br label %75

35:                                               ; preds = %25
  br label %36

36:                                               ; preds = %35
  br label %37

37:                                               ; preds = %36
  br label %38

38:                                               ; preds = %37
  %39 = load ptr, ptr %6, align 8, !tbaa !50
  %40 = load i64, ptr %5, align 8, !tbaa !7
  %41 = call i32 @mbedtls_mpi_set_bit(ptr noundef %39, i64 noundef %40, i8 noundef zeroext 1)
  store i32 %41, ptr %9, align 4, !tbaa !3
  %42 = icmp ne i32 %41, 0
  br i1 %42, label %43, label %44

43:                                               ; preds = %38
  br label %75

44:                                               ; preds = %38
  br label %45

45:                                               ; preds = %44
  br label %46

46:                                               ; preds = %45
  br label %47

47:                                               ; preds = %46
  %48 = load ptr, ptr %6, align 8, !tbaa !50
  %49 = call i32 @mbedtls_mpi_set_bit(ptr noundef %48, i64 noundef 0, i8 noundef zeroext 0)
  store i32 %49, ptr %9, align 4, !tbaa !3
  %50 = icmp ne i32 %49, 0
  br i1 %50, label %51, label %52

51:                                               ; preds = %47
  br label %75

52:                                               ; preds = %47
  br label %53

53:                                               ; preds = %52
  br label %54

54:                                               ; preds = %53
  br label %55

55:                                               ; preds = %54
  %56 = load ptr, ptr %6, align 8, !tbaa !50
  %57 = call i32 @mbedtls_mpi_set_bit(ptr noundef %56, i64 noundef 1, i8 noundef zeroext 0)
  store i32 %57, ptr %9, align 4, !tbaa !3
  %58 = icmp ne i32 %57, 0
  br i1 %58, label %59, label %60

59:                                               ; preds = %55
  br label %75

60:                                               ; preds = %55
  br label %61

61:                                               ; preds = %60
  br label %62

62:                                               ; preds = %61
  %63 = load i64, ptr %5, align 8, !tbaa !7
  %64 = icmp eq i64 %63, 254
  br i1 %64, label %65, label %74

65:                                               ; preds = %62
  br label %66

66:                                               ; preds = %65
  %67 = load ptr, ptr %6, align 8, !tbaa !50
  %68 = call i32 @mbedtls_mpi_set_bit(ptr noundef %67, i64 noundef 2, i8 noundef zeroext 0)
  store i32 %68, ptr %9, align 4, !tbaa !3
  %69 = icmp ne i32 %68, 0
  br i1 %69, label %70, label %71

70:                                               ; preds = %66
  br label %75

71:                                               ; preds = %66
  br label %72

72:                                               ; preds = %71
  br label %73

73:                                               ; preds = %72
  br label %74

74:                                               ; preds = %73, %62
  br label %75

75:                                               ; preds = %74, %70, %59, %51, %43, %34, %21
  %76 = load i32, ptr %9, align 4, !tbaa !3
  call void @llvm.lifetime.end.p0(i64 8, ptr %10) #11
  call void @llvm.lifetime.end.p0(i64 4, ptr %9) #11
  ret i32 %76
}

; Function Attrs: nounwind uwtable
define hidden i32 @mbedtls_ecp_get_type(ptr noundef %0) #0 {
  %2 = alloca i32, align 4
  %3 = alloca ptr, align 8
  store ptr %0, ptr %3, align 8, !tbaa !25
  %4 = load ptr, ptr %3, align 8, !tbaa !25
  %5 = getelementptr inbounds nuw %struct.mbedtls_ecp_group, ptr %4, i32 0, i32 4
  %6 = getelementptr inbounds nuw %struct.mbedtls_ecp_point, ptr %5, i32 0, i32 0
  %7 = getelementptr inbounds nuw %struct.mbedtls_mpi, ptr %6, i32 0, i32 0
  %8 = load ptr, ptr %7, align 8, !tbaa !27
  %9 = icmp eq ptr %8, null
  br i1 %9, label %10, label %11

10:                                               ; preds = %1
  store i32 0, ptr %2, align 4
  br label %20

11:                                               ; preds = %1
  %12 = load ptr, ptr %3, align 8, !tbaa !25
  %13 = getelementptr inbounds nuw %struct.mbedtls_ecp_group, ptr %12, i32 0, i32 4
  %14 = getelementptr inbounds nuw %struct.mbedtls_ecp_point, ptr %13, i32 0, i32 1
  %15 = getelementptr inbounds nuw %struct.mbedtls_mpi, ptr %14, i32 0, i32 0
  %16 = load ptr, ptr %15, align 8, !tbaa !33
  %17 = icmp eq ptr %16, null
  br i1 %17, label %18, label %19

18:                                               ; preds = %11
  store i32 2, ptr %2, align 4
  br label %20

19:                                               ; preds = %11
  store i32 1, ptr %2, align 4
  br label %20

20:                                               ; preds = %19, %18, %10
  %21 = load i32, ptr %2, align 4
  ret i32 %21
}

; Function Attrs: nounwind uwtable
define hidden i32 @mbedtls_ecp_gen_privkey(ptr noundef %0, ptr noundef %1, ptr noundef %2, ptr noundef %3) #0 {
  %5 = alloca i32, align 4
  %6 = alloca ptr, align 8
  %7 = alloca ptr, align 8
  %8 = alloca ptr, align 8
  %9 = alloca ptr, align 8
  store ptr %0, ptr %6, align 8, !tbaa !25
  store ptr %1, ptr %7, align 8, !tbaa !50
  store ptr %2, ptr %8, align 8, !tbaa !55
  store ptr %3, ptr %9, align 8, !tbaa !55
  %10 = load ptr, ptr %6, align 8, !tbaa !25
  %11 = call i32 @mbedtls_ecp_get_type(ptr noundef %10)
  %12 = icmp eq i32 %11, 2
  br i1 %12, label %13, label %21

13:                                               ; preds = %4
  %14 = load ptr, ptr %6, align 8, !tbaa !25
  %15 = getelementptr inbounds nuw %struct.mbedtls_ecp_group, ptr %14, i32 0, i32 7
  %16 = load i64, ptr %15, align 8, !tbaa !37
  %17 = load ptr, ptr %7, align 8, !tbaa !50
  %18 = load ptr, ptr %8, align 8, !tbaa !55
  %19 = load ptr, ptr %9, align 8, !tbaa !55
  %20 = call i32 @mbedtls_ecp_gen_privkey_mx(i64 noundef %16, ptr noundef %17, ptr noundef %18, ptr noundef %19)
  store i32 %20, ptr %5, align 4
  br label %33

21:                                               ; preds = %4
  %22 = load ptr, ptr %6, align 8, !tbaa !25
  %23 = call i32 @mbedtls_ecp_get_type(ptr noundef %22)
  %24 = icmp eq i32 %23, 1
  br i1 %24, label %25, label %32

25:                                               ; preds = %21
  %26 = load ptr, ptr %6, align 8, !tbaa !25
  %27 = getelementptr inbounds nuw %struct.mbedtls_ecp_group, ptr %26, i32 0, i32 5
  %28 = load ptr, ptr %7, align 8, !tbaa !50
  %29 = load ptr, ptr %8, align 8, !tbaa !55
  %30 = load ptr, ptr %9, align 8, !tbaa !55
  %31 = call i32 @mbedtls_ecp_gen_privkey_sw(ptr noundef %27, ptr noundef %28, ptr noundef %29, ptr noundef %30)
  store i32 %31, ptr %5, align 4
  br label %33

32:                                               ; preds = %21
  store i32 -20352, ptr %5, align 4
  br label %33

33:                                               ; preds = %32, %25, %13
  %34 = load i32, ptr %5, align 4
  ret i32 %34
}