; Function Attrs: nounwind uwtable
define hidden i32 @mbedtls_ecp_gen_privkey(ptr noundef %0, ptr noundef %1, ptr noundef %2, ptr noundef %3) local_unnamed_addr #7 {
  %5 = getelementptr inbounds nuw i8, ptr %0, i64 56
  %6 = load ptr, ptr %5, align 8, !tbaa !19
  %7 = icmp eq ptr %6, null
  br i1 %7, label %mbedtls_ecp_gen_privkey_mx.exit, label %8

8:                                                ; preds = %4
  %9 = getelementptr inbounds nuw i8, ptr %0, i64 72
  %10 = load ptr, ptr %9, align 8, !tbaa !26
  %11 = icmp eq ptr %10, null
  br i1 %11, label %mbedtls_ecp_get_type.exit, label %mbedtls_ecp_get_type.exit13

mbedtls_ecp_get_type.exit:                        ; preds = %8
  %12 = getelementptr inbounds nuw i8, ptr %0, i64 128
  %13 = load i64, ptr %12, align 8, !tbaa !38
  %14 = lshr i64 %13, 3
  %15 = add nuw nsw i64 %14, 1
  %16 = tail call i32 @mbedtls_mpi_fill_random(ptr noundef %1, i64 noundef %15, ptr noundef %2, ptr noundef %3) #21
  %.not.i = icmp eq i32 %16, 0
  br i1 %.not.i, label %17, label %mbedtls_ecp_gen_privkey_mx.exit

17:                                               ; preds = %mbedtls_ecp_get_type.exit
  %18 = shl i64 %15, 3
  %19 = xor i64 %13, -1
  %20 = add i64 %18, %19
  %21 = tail call i32 @mbedtls_mpi_shift_r(ptr noundef %1, i64 noundef %20) #21
  %.not19.i = icmp eq i32 %21, 0
  br i1 %.not19.i, label %22, label %mbedtls_ecp_gen_privkey_mx.exit

22:                                               ; preds = %17
  %23 = tail call i32 @mbedtls_mpi_set_bit(ptr noundef %1, i64 noundef %13, i8 noundef zeroext 1) #21
  %.not20.i = icmp eq i32 %23, 0
  br i1 %.not20.i, label %24, label %mbedtls_ecp_gen_privkey_mx.exit

24:                                               ; preds = %22
  %25 = tail call i32 @mbedtls_mpi_set_bit(ptr noundef %1, i64 noundef 0, i8 noundef zeroext 0) #21
  %.not21.i = icmp eq i32 %25, 0
  br i1 %.not21.i, label %26, label %mbedtls_ecp_gen_privkey_mx.exit

26:                                               ; preds = %24
  %27 = tail call i32 @mbedtls_mpi_set_bit(ptr noundef %1, i64 noundef 1, i8 noundef zeroext 0) #21
  %28 = icmp eq i32 %27, 0
  %29 = icmp eq i64 %13, 254
  %or.cond.i = and i1 %29, %28
  br i1 %or.cond.i, label %30, label %mbedtls_ecp_gen_privkey_mx.exit

30:                                               ; preds = %26
  %31 = tail call i32 @mbedtls_mpi_set_bit(ptr noundef %1, i64 noundef 2, i8 noundef zeroext 0) #21
  br label %mbedtls_ecp_gen_privkey_mx.exit

mbedtls_ecp_get_type.exit13:                      ; preds = %8
  %32 = getelementptr inbounds nuw i8, ptr %0, i64 104
  %33 = tail call i32 @mbedtls_mpi_random(ptr noundef %1, i64 noundef 1, ptr noundef nonnull %32, ptr noundef %2, ptr noundef %3) #21
  %cond.i = icmp eq i32 %33, -14
  %..i14 = select i1 %cond.i, i32 -19712, i32 %33
  br label %mbedtls_ecp_gen_privkey_mx.exit

mbedtls_ecp_gen_privkey_mx.exit:                  ; preds = %4, %30, %26, %24, %22, %17, %mbedtls_ecp_get_type.exit, %mbedtls_ecp_get_type.exit13
  %.0 = phi i32 [ %..i14, %mbedtls_ecp_get_type.exit13 ], [ %16, %mbedtls_ecp_get_type.exit ], [ %21, %17 ], [ %23, %22 ], [ %25, %24 ], [ %31, %30 ], [ %27, %26 ], [ -20352, %4 ]
  ret i32 %.0
}